Certificate:
    Data:
        Version: 3 (0x2)
        Serial Number: 1 (0x1)
    Signature Algorithm: sha1WithRSAEncryption
        Issuer: C=SV, ST=Stockholm, L=Stockholm City, O=Sweden Connectivity AB, OU=Information Technology, CN=Admin/emailAddress=yasir.ali@swedenconnectivity.com
        Validity
            Not Before: Oct 21 07:58:13 2013 GMT
            Not After : Oct 21 07:58:13 2014 GMT
        Subject: C=SV, ST=Stockholm, O=Sweden Connectivity AB, OU=Information Technology, CN=Admin/emailAddress=yasir.ali@swedenconnectivity.com
        Subject Public Key Info:
            Public Key Algorithm: rsaEncryption
                Public-Key: (2048 bit)
                Modulus:
                    00:a4:0a:96:0c:8d:37:5a:46:e3:d6:44:7f:28:94:
                    49:fc:d7:bd:99:0e:5c:4b:04:a7:a0:66:13:e2:8d:
                    12:69:d1:f2:94:2b:f5:03:ab:ed:6e:71:c3:ef:08:
                    bf:c2:1b:77:e2:7b:ec:3a:54:91:82:31:89:e6:f8:
                    56:65:59:cf:3f:ea:16:44:6f:40:a7:e9:4a:72:7e:
                    0f:52:c0:fe:db:82:25:f3:1c:19:69:bf:d5:28:0f:
                    8d:27:43:d2:d5:cc:cf:c6:67:20:9a:4e:11:51:5c:
                    88:50:3c:6b:2d:b8:9b:f9:26:e7:e3:5c:74:fd:04:
                    69:b9:ff:d8:a3:41:68:a7:8a:9c:1b:ac:80:4c:c6:
                    8a:f9:64:82:46:4b:89:6f:24:5f:8b:ca:8d:8d:d3:
                    30:57:22:2e:27:65:f8:c3:3d:b1:56:ae:96:f1:ea:
                    db:87:09:dc:b4:e1:5a:4b:c3:d4:1d:ec:eb:38:33:
                    5b:83:ec:d5:ca:35:c6:6b:30:e6:fa:cd:2e:d9:da:
                    7d:cc:e5:fa:2c:74:47:a8:8e:10:92:7b:4c:0f:4c:
                    44:0c:99:b7:b2:5c:32:49:ba:b6:dc:41:04:3a:27:
                    02:d2:27:f5:f4:d2:b1:de:45:26:fd:1d:a2:6f:7a:
                    12:d9:d4:ba:fe:bd:eb:d3:4c:9f:d3:3b:3f:79:f0:
                    94:91
                Exponent: 65537 (0x10001)
        X509v3 extensions:
            X509v3 Basic Constraints: 
                CA:FALSE
            Netscape Comment: 
                OpenSSL Generated Certificate
            X509v3 Subject Key Identifier: 
                77:70:55:65:A6:B8:60:A2:61:B7:12:4A:5F:BF:5B:E9:8D:A3:D7:81
            X509v3 Authority Key Identifier: 
                keyid:43:07:4A:96:50:BA:F6:C0:8F:F2:51:B0:A9:9F:08:F0:05:94:2C:67

    Signature Algorithm: sha1WithRSAEncryption
         5b:90:df:85:b1:de:c9:54:30:51:5d:4d:b8:da:25:89:dc:a3:
         ba:5d:24:27:2e:7d:8f:f7:49:99:13:66:36:2f:b6:a6:26:01:
         44:61:26:4e:7e:32:f6:07:38:1e:3d:57:0f:f7:80:27:2d:89:
         5b:62:6f:a2:3c:c2:b9:76:9a:65:6e:e1:ab:1a:22:ca:ec:74:
         71:de:b7:eb:8e:29:8b:b5:ba:ab:2c:c2:e7:19:4c:ef:ed:87:
         4b:d1:cd:75:d2:25:5f:db:d2:ea:97:02:9e:1d:bf:b1:d0:d8:
         30:77:30:8b:70:b7:f2:0b:9f:6b:af:9e:44:20:8d:54:e7:c7:
         1f:dd
-----BEGIN CERTIFICATE-----
MIID2DCCA0GgAwIBAgIBATANBgkqhkiG9w0BAQUFADCBvTELMAkGA1UEBhMCU1Yx
EjAQBgNVBAgMCVN0b2NraG9sbTEXMBUGA1UEBwwOU3RvY2tob2xtIENpdHkxHzAd
BgNVBAoMFlN3ZWRlbiBDb25uZWN0aXZpdHkgQUIxHzAdBgNVBAsMFkluZm9ybWF0
aW9uIFRlY2hub2xvZ3kxDjAMBgNVBAMMBUFkbWluMS8wLQYJKoZIhvcNAQkBFiB5
YXNpci5hbGlAc3dlZGVuY29ubmVjdGl2aXR5LmNvbTAeFw0xMzEwMjEwNzU4MTNa
Fw0xNDEwMjEwNzU4MTNaMIGkMQswCQYDVQQGEwJTVjESMBAGA1UECAwJU3RvY2to
b2xtMR8wHQYDVQQKDBZTd2VkZW4gQ29ubmVjdGl2aXR5IEFCMR8wHQYDVQQLDBZJ
bmZvcm1hdGlvbiBUZWNobm9sb2d5MQ4wDAYDVQQDDAVBZG1pbjEvMC0GCSqGSIb3
DQEJARYgeWFzaXIuYWxpQHN3ZWRlbmNvbm5lY3Rpdml0eS5jb20wggEiMA0GCSqG
SIb3DQEBAQUAA4IBDwAwggEKAoIBAQCkCpYMjTdaRuPWRH8olEn8172ZDlxLBKeg
ZhPijRJp0fKUK/UDq+1uccPvCL/CG3fie+w6VJGCMYnm+FZlWc8/6hZEb0Cn6Upy
fg9SwP7bgiXzHBlpv9UoD40nQ9LVzM/GZyCaThFRXIhQPGstuJv5JufjXHT9BGm5
/9ijQWinipwbrIBMxor5ZIJGS4lvJF+Lyo2N0zBXIi4nZfjDPbFWrpbx6tuHCdy0
4VpLw9Qd7Os4M1uD7NXKNcZrMOb6zS7Z2n3M5fosdEeojhCSe0wPTEQMmbeyXDJJ
urbcQQQ6JwLSJ/X00rHeRSb9HaJvehLZ1Lr+vevTTJ/TOz958JSRAgMBAAGjezB5
MAkGA1UdEwQCMAAwLAYJYIZIAYb4QgENBB8WHU9wZW5TU0wgR2VuZXJhdGVkIENl
cnRpZmljYXRlMB0GA1UdDgQWBBR3cFVlprhgomG3Ekpfv1vpjaPXgTAfBgNVHSME
GDAWgBRDB0qWULr2wI/yUbCpnwjwBZQsZzANBgkqhkiG9w0BAQUFAAOBgQBbkN+F
sd7JVDBRXU242iWJ3KO6XSQnLn2P90mZE2Y2L7amJgFEYSZOfjL2BzgePVcP94An
LYlbYm+iPMK5dpplbuGrGiLK7HRx3rfrjimLtbqrLMLnGUzv7YdL0c110iVf29Lq
lwKeHb+x0NgwdzCLcLfyC59rr55EII1U58cf3Q==
-----END CERTIFICATE-----
